target datalayout = "e-m:e-p270:32:32-p271:32:32-p272:64:64-i64:64-i128:128-f80:128-n8:16:32:64-S128"
target triple = "x86_64-pc-linux-gnu"

%struct._object = type { %union.anon, ptr }
%union.anon = type { i64 }
%struct._typeobject = type { %struct.PyVarObject, ptr, i64, i64, ptr, i64, ptr, ptr, ptr, ptr, ptr, ptr, ptr, ptr, ptr, ptr, ptr, ptr, ptr, i64, ptr, ptr, ptr, ptr, i64, ptr, ptr, ptr, ptr, ptr, ptr, ptr, ptr, ptr, i64, ptr, ptr, ptr, ptr, ptr, ptr, ptr, ptr, ptr, ptr, ptr, i32, ptr, ptr, i8, i16 }
%struct.PyVarObject = type { %struct._object, i64 }

@PyExc_AssertionError = external global ptr, align 8
@PyCode_Type = external global %struct._typeobject, align 8
@.str.252 = private unnamed_addr constant [3 x i8] c"O!\00", align 1
@.str.253 = private unnamed_addr constant [29 x i8] c"Failed to compile trampoline\00", align 1

; Function Attrs: nounwind uwtable
define internal ptr @compile_perf_trampoline_entry(ptr noundef %0, ptr noundef %1) #0 {
  %3 = alloca ptr, align 8
  %4 = alloca ptr, align 8
  %5 = alloca ptr, align 8
  %6 = alloca ptr, align 8
  %7 = alloca i32, align 4
  %8 = alloca i32, align 4
  store ptr %0, ptr %4, align 8, !tbaa !3
  store ptr %1, ptr %5, align 8, !tbaa !3
  call void @llvm.lifetime.start.p0(i64 8, ptr %6) #10
  %9 = load ptr, ptr %5, align 8, !tbaa !3
  %10 = call i32 (ptr, ptr, ...) @PyArg_ParseTuple(ptr noundef %9, ptr noundef @.str.252, ptr noundef @PyCode_Type, ptr noundef %6)
  %11 = icmp ne i32 %10, 0
  br i1 %11, label %13, label %12

12:                                               ; preds = %2
  store ptr null, ptr %3, align 8
  store i32 1, ptr %7, align 4
  br label %25

13:                                               ; preds = %2
  call void @llvm.lifetime.start.p0(i64 4, ptr %8) #10
  %14 = load ptr, ptr %6, align 8, !tbaa !3
  %15 = call i32 @PyUnstable_PerfTrampoline_CompileCode(ptr noundef %14)
  store i32 %15, ptr %8, align 4, !tbaa !26
  %16 = load i32, ptr %8, align 4, !tbaa !26
  %17 = icmp ne i32 %16, 0
  br i1 %17, label %18, label %20

18:                                               ; preds = %13
  %19 = load ptr, ptr @PyExc_AssertionError, align 8, !tbaa !3
  call void @PyErr_SetString(ptr noundef %19, ptr noundef @.str.253)
  store ptr null, ptr %3, align 8
  store i32 1, ptr %7, align 4
  br label %24

20:                                               ; preds = %13
  %21 = load i32, ptr %8, align 4, !tbaa !26
  %22 = sext i32 %21 to i64
  %23 = call ptr @PyLong_FromLong(i64 noundef %22)
  store ptr %23, ptr %3, align 8
  store i32 1, ptr %7, align 4
  br label %24

24:                                               ; preds = %20, %18
  call void @llvm.lifetime.end.p0(i64 4, ptr %8) #10
  br label %25

25:                                               ; preds = %24, %12
  call void @llvm.lifetime.end.p0(i64 8, ptr %6) #10
  %26 = load ptr, ptr %3, align 8
  ret ptr %26
}