; Function Attrs: nounwind uwtable
define internal ptr @compile_perf_trampoline_entry(ptr readnone captures(none) %0, ptr noundef %1) #0 {
  %3 = alloca ptr, align 8
  call void @llvm.lifetime.start.p0(i64 8, ptr nonnull %3) #11
  %4 = call i32 (ptr, ptr, ...) @PyArg_ParseTuple(ptr noundef %1, ptr noundef nonnull @.str.252, ptr noundef nonnull @PyCode_Type, ptr noundef nonnull %3) #11
  %.not = icmp eq i32 %4, 0
  br i1 %.not, label %12, label %5

5:                                                ; preds = %2
  %6 = load ptr, ptr %3, align 8, !tbaa !9
  %7 = call i32 @PyUnstable_PerfTrampoline_CompileCode(ptr noundef %6) #11
  %.not4 = icmp eq i32 %7, 0
  br i1 %.not4, label %10, label %8

8:                                                ; preds = %5
  %9 = load ptr, ptr @PyExc_AssertionError, align 8, !tbaa !9
  call void @PyErr_SetString(ptr noundef %9, ptr noundef nonnull @.str.253) #11
  br label %12

10:                                               ; preds = %5
  %11 = call ptr @PyLong_FromLong(i64 noundef 0) #11
  br label %12

12:                                               ; preds = %8, %10, %2
  %.0 = phi ptr [ null, %2 ], [ null, %8 ], [ %11, %10 ]
  call void @llvm.lifetime.end.p0(i64 8, ptr nonnull %3) #11
  ret ptr %.0
}